(dp0
S'n03584829_15033'
p1
I22
sS'n03100240_9354'
p2
I13
sS'n02106662_77543'
p3
I0
sS'n03584829_36033'
p4
I22
sS'n03376595_53'
p5
I19
sS'n03584829_2690'
p6
I22
sS'n03773504_15609'
p7
I25
sS'n03297495_226'
p8
I18
sS'n03297495_1933'
p9
I18
sS'n07753592_783'
p10
I36
sS'n03709823_7134'
p11
I24
sS'n03272562_2929'
p12
I17
sS'n02389026_1079'
p13
I3
sS'n07873807_17633'
p14
I37
sS'n03063599_3677'
p15
I12
sS'n04120489_7187'
p16
I35
sS'n02607072_4820'
p17
I7
sS'n07873807_3227'
p18
I37
sS'n04120489_6812'
p19
I35
sS'n13054560_11059'
p20
I39
sS'n04069434_24416'
p21
I33
sS'n03063599_4086'
p22
I12
sS'n03590841_2665'
p23
I23
sS'n03773504_16262'
p24
I25
sS'n03709823_7681'
p25
I24
sS'n03100240_5395'
p26
I13
sS'n03376595_9877'
p27
I19
sS'n13054560_4595'
p28
I39
sS'n03590841_2884'
p29
I23
sS'n03773504_4959'
p30
I25
sS'n02906734_28719'
p31
I9
sS'n02951358_31133'
p32
I10
sS'n02281787_4099'
p33
I2
sS'n03445777_2207'
p34
I20
sS'n03584829_49805'
p35
I22
sS'n04120489_1583'
p36
I35
sS'n02906734_6542'
p37
I9
sS'n03272010_2289'
p38
I16
sS'n11939491_5681'
p39
I38
sS'n03100240_16653'
p40
I13
sS'n03792782_8977'
p41
I27
sS'n03272010_6747'
p42
I16
sS'n03877472_2301'
p43
I29
sS'n02992529_10642'
p44
I11
sS'n03452741_7127'
p45
I21
sS'n04069434_12218'
p46
I33
sS'n03877472_38766'
p47
I29
sS'n02389026_9196'
p48
I3
sS'n03584829_34968'
p49
I22
sS'n03709823_14124'
p50
I24
sS'n02281787_2673'
p51
I2
sS'n02106662_49005'
p52
I0
sS'n03197337_14921'
p53
I15
sS'n04086273_5691'
p54
I34
sS'n04044716_14332'
p55
I32
sS'n02951358_7348'
p56
I10
sS'n03197337_9029'
p57
I15
sS'n02492035_16220'
p58
I4
sS'n02492035_16224'
p59
I4
sS'n02504458_3599'
p60
I5
sS'n13054560_4971'
p61
I39
sS'n04044716_23926'
p62
I32
sS'n02607072_2175'
p63
I7
sS'n02281787_1529'
p64
I2
sS'n03775071_3297'
p65
I26
sS'n03445777_14638'
p66
I20
sS'n07753592_19407'
p67
I36
sS'n02106662_79868'
p68
I0
sS'n04044716_11204'
p69
I32
sS'n02951358_31796'
p70
I10
sS'n03982430_7690'
p71
I31
sS'n02281787_5770'
p72
I2
sS'n03452741_25458'
p73
I21
sS'n04044716_12264'
p74
I32
sS'n02992529_4366'
p75
I11
sS'n11939491_19095'
p76
I38
sS'n03775071_20922'
p77
I26
sS'n03297495_805'
p78
I18
sS'n03376595_5074'
p79
I19
sS'n02124075_5231'
p80
I1
sS'n04069434_11379'
p81
I33
sS'n04086273_951'
p82
I34
sS'n03709823_16780'
p83
I24
sS'n03197337_1941'
p84
I15
sS'n03197337_1493'
p85
I15
sS'n02992529_35289'
p86
I11
sS'n03063599_858'
p87
I12
sS'n02281787_2971'
p88
I2
sS'n07753592_5019'
p89
I36
sS'n02389026_2743'
p90
I3
sS'n03272562_1828'
p91
I17
sS'n03877472_15325'
p92
I29
sS'n04086273_1330'
p93
I34
sS'n02951358_15676'
p94
I10
sS'n03452741_1177'
p95
I21
sS'n04120489_10539'
p96
I35
sS'n02106662_10232'
p97
I0
sS'n02504458_4234'
p98
I5
sS'n04086273_19589'
p99
I34
sS'n03590841_21'
p100
I23
sS'n04069434_12873'
p101
I33
sS'n02389026_12636'
p102
I3
sS'n02504458_7221'
p103
I5
sS'n04044716_3891'
p104
I32
sS'n13054560_294'
p105
I39
sS'n04120489_43'
p106
I35
sS'n02510455_8127'
p107
I6
sS'n02106662_83711'
p108
I0
sS'n02906734_29051'
p109
I9
sS'n11939491_6582'
p110
I38
sS'n03272562_1177'
p111
I17
sS'n03792972_3787'
p112
I28
sS'n03773504_23911'
p113
I25
sS'n02281787_5793'
p114
I2
sS'n03180011_1108'
p115
I14
sS'n02607072_958'
p116
I7
sS'n03272010_7370'
p117
I16
sS'n03272010_3532'
p118
I16
sS'n03709823_25081'
p119
I24
sS'n03888257_12753'
p120
I30
sS'n03063599_5019'
p121
I12
sS'n03376595_2406'
p122
I19
sS'n03376595_549'
p123
I19
sS'n04044716_7245'
p124
I32
sS'n02607072_3642'
p125
I7
sS'n02389026_7267'
p126
I3
sS'n03590841_14190'
p127
I23
sS'n03197337_669'
p128
I15
sS'n03063599_5693'
p129
I12
sS'n13054560_6542'
p130
I39
sS'n03792972_6192'
p131
I28
sS'n02906734_5573'
p132
I9
sS'n02690373_2758'
p133
I8
sS'n07873807_15347'
p134
I37
sS'n03197337_2141'
p135
I15
sS'n04086273_11758'
p136
I34
sS'n11939491_16388'
p137
I38
sS'n03376595_3043'
p138
I19
sS'n03197337_6681'
p139
I15
sS'n03792782_12075'
p140
I27
sS'n04086273_400'
p141
I34
sS'n03297495_355'
p142
I18
sS'n03272562_6586'
p143
I17
sS'n03982430_10654'
p144
I31
sS'n03100240_3543'
p145
I13
sS'n03445777_5377'
p146
I20
sS'n02124075_11103'
p147
I1
sS'n03100240_13635'
p148
I13
sS'n03297495_20866'
p149
I18
sS'n03272562_3315'
p150
I17
sS'n02124075_475'
p151
I1
sS'n02992529_5745'
p152
I11
sS'n03709823_23169'
p153
I24
sS'n03452741_10885'
p154
I21
sS'n02906734_14098'
p155
I9
sS'n03590841_1053'
p156
I23
sS'n02992529_47852'
p157
I11
sS'n03180011_7359'
p158
I14
sS'n03792782_13717'
p159
I27
sS'n03445777_8224'
p160
I20
sS'n02492035_8444'
p161
I4
sS'n02951358_4819'
p162
I10
sS'n02951358_6087'
p163
I10
sS'n03272010_6825'
p164
I16
sS'n03272562_6105'
p165
I17
sS'n07873807_7773'
p166
I37
sS'n02906734_17920'
p167
I9
sS'n02281787_2446'
p168
I2
sS'n02389026_6377'
p169
I3
sS'n02906734_23744'
p170
I9
sS'n03376595_8346'
p171
I19
sS'n03792972_7442'
p172
I28
sS'n03100240_5383'
p173
I13
sS'n03877472_20131'
p174
I29
sS'n03272562_7962'
p175
I17
sS'n03180011_214'
p176
I14
sS'n04120489_1066'
p177
I35
sS'n03888257_15491'
p178
I30
sS'n02124075_4538'
p179
I1
sS'n04069434_14764'
p180
I33
sS'n03197337_5673'
p181
I15
sS'n02106662_1451'
p182
I0
sS'n04120489_6375'
p183
I35
sS'n03180011_1749'
p184
I14
sS'n03063599_3194'
p185
I12
sS'n02510455_15313'
p186
I6
sS'n03888257_23265'
p187
I30
sS'n02906734_20653'
p188
I9
sS'n03775071_3112'
p189
I26
sS'n03063599_2827'
p190
I12
sS'n02510455_86961'
p191
I6
sS'n03297495_903'
p192
I18
sS'n03297495_3171'
p193
I18
sS'n03584829_14994'
p194
I22
sS'n04086273_20252'
p195
I34
sS'n02106662_29819'
p196
I0
sS'n11939491_18382'
p197
I38
sS'n04069434_12869'
p198
I33
sS'n07873807_13989'
p199
I37
sS'n11939491_57242'
p200
I38
sS'n02510455_88611'
p201
I6
sS'n02504458_12191'
p202
I5
sS'n03445777_3296'
p203
I20
sS'n02607072_9462'
p204
I7
sS'n04069434_4865'
p205
I33
sS'n03180011_9698'
p206
I14
sS'n03773504_8982'
p207
I25
sS'n03709823_9413'
p208
I24
sS'n02124075_7392'
p209
I1
sS'n13054560_13215'
p210
I39
sS'n07873807_13881'
p211
I37
sS'n02492035_1077'
p212
I4
sS'n03584829_28537'
p213
I22
sS'n04044716_691'
p214
I32
sS'n02607072_2525'
p215
I7
sS'n03590841_13459'
p216
I23
sS'n11939491_4788'
p217
I38
sS'n03272562_1962'
p218
I17
sS'n03792972_3150'
p219
I28
sS'n03982430_22706'
p220
I31
sS'n02504458_11511'
p221
I5
sS'n03272562_1968'
p222
I17
sS'n04120489_10744'
p223
I35
sS'n02951358_4531'
p224
I10
sS'n03180011_10612'
p225
I14
sS'n03445777_1460'
p226
I20
sS'n03773504_14109'
p227
I25
sS'n07753592_3018'
p228
I36
sS'n02690373_4814'
p229
I8
sS'n02690373_1055'
p230
I8
sS'n03775071_10050'
p231
I26
sS'n03775071_9475'
p232
I26
sS'n03063599_5477'
p233
I12
sS'n02492035_1105'
p234
I4
sS'n03584829_27971'
p235
I22
sS'n03590841_6880'
p236
I23
sS'n03792972_3370'
p237
I28
sS'n03452741_15314'
p238
I21
sS'n03888257_18921'
p239
I30
sS'n02281787_3301'
p240
I2
sS'n03590841_2089'
p241
I23
sS'n13054560_7150'
p242
I39
sS'n02510455_4124'
p243
I6
sS'n03452741_3898'
p244
I21
sS'n03180011_10055'
p245
I14
sS'n03197337_3955'
p246
I15
sS'n03272010_14701'
p247
I16
sS'n03590841_6380'
p248
I23
sS'n03773504_2805'
p249
I25
sS'n11939491_49618'
p250
I38
sS'n02951358_12548'
p251
I10
sS'n03590841_7112'
p252
I23
sS'n03590841_11757'
p253
I23
sS'n03272562_17407'
p254
I17
sS'n03792972_5632'
p255
I28
sS'n03180011_3195'
p256
I14
sS'n03180011_5929'
p257
I14
sS'n02992529_44809'
p258
I11
sS'n03792972_2680'
p259
I28
sS'n03376595_6759'
p260
I19
sS'n03792972_2684'
p261
I28
sS'n07753592_16953'
p262
I36
sS'n02690373_16250'
p263
I8
sS'n07873807_2541'
p264
I37
sS'n02607072_3650'
p265
I7
sS'n03297495_697'
p266
I18
sS'n02504458_5190'
p267
I5
sS'n02504458_480'
p268
I5
sS'n02504458_481'
p269
I5
sS'n02510455_8733'
p270
I6
sS'n02510455_1340'
p271
I6
sS'n03709823_25676'
p272
I24
sS'n04069434_17289'
p273
I33
sS'n13054560_8062'
p274
I39
sS'n03709823_15257'
p275
I24
sS'n03452741_1233'
p276
I21
sS'n02607072_2678'
p277
I7
sS'n02992529_51590'
p278
I11
sS'n02906734_21440'
p279
I9
sS'n03063599_4405'
p280
I12
sS'n03063599_691'
p281
I12
sS'n03376595_11049'
p282
I19
sS'n02281787_2222'
p283
I2
sS'n03445777_5342'
p284
I20
sS'n03272010_6902'
p285
I16
sS'n07873807_18033'
p286
I37
sS'n03584829_6176'
p287
I22
sS'n02510455_7838'
p288
I6
sS'n13054560_10635'
p289
I39
sS'n02690373_6314'
p290
I8
sS'n02510455_7832'
p291
I6
sS'n03792782_5419'
p292
I27
sS'n02992529_41277'
p293
I11
sS'n02106662_24480'
p294
I0
sS'n03376595_8916'
p295
I19
sS'n02106662_2163'
p296
I0
sS'n03063599_1973'
p297
I12
sS'n04044716_1622'
p298
I32
sS'n02281787_2279'
p299
I2
sS'n02281787_780'
p300
I2
sS'n02389026_636'
p301
I3
sS'n03445777_2951'
p302
I20
sS'n03792782_11989'
p303
I27
sS'n03376595_2617'
p304
I19
sS'n03590841_8648'
p305
I23
sS'n02510455_9177'
p306
I6
sS'n03792782_7566'
p307
I27
sS'n04069434_22737'
p308
I33
sS'n02281787_2451'
p309
I2
sS'n04086273_4437'
p310
I34
sS'n02690373_7685'
p311
I8
sS'n03792782_40932'
p312
I27
sS'n03888257_20148'
p313
I30
sS'n04120489_4559'
p314
I35
sS'n02124075_9271'
p315
I1
sS'n03445777_3356'
p316
I20
sS'n03792782_6149'
p317
I27
sS'n13054560_6228'
p318
I39
sS'n07753592_3543'
p319
I36
sS'n03877472_21671'
p320
I29
sS'n03877472_13777'
p321
I29
sS'n03376595_10737'
p322
I19
sS'n02906734_16797'
p323
I9
sS'n03877472_35944'
p324
I29
sS'n04069434_12271'
p325
I33
sS'n03792782_52040'
p326
I27
sS'n02951358_29750'
p327
I10
sS'n03792782_10638'
p328
I27
sS'n03584829_16538'
p329
I22
sS'n03792782_7638'
p330
I27
sS'n02281787_3492'
p331
I2
sS'n02992529_42996'
p332
I11
sS'n03272010_4472'
p333
I16
sS'n03888257_11387'
p334
I30
sS'n02389026_5736'
p335
I3
sS'n04086273_12999'
p336
I34
sS'n03982430_4411'
p337
I31
sS'n03100240_9454'
p338
I13
sS'n03877472_3327'
p339
I29
sS'n02951358_33042'
p340
I10
sS'n03709823_4113'
p341
I24
sS'n04120489_6168'
p342
I35
sS'n02124075_5104'
p343
I1
sS'n02607072_5889'
p344
I7
sS'n03709823_26727'
p345
I24
sS'n03180011_3437'
p346
I14
sS'n11939491_16390'
p347
I38
sS'n11939491_9851'
p348
I38
sS'n03590841_6633'
p349
I23
sS'n03590841_6180'
p350
I23
sS'n04086273_25506'
p351
I34
sS'n11939491_11283'
p352
I38
sS'n03982430_38303'
p353
I31
sS'n11939491_26179'
p354
I38
sS'n02281787_5552'
p355
I2
sS'n13054560_7882'
p356
I39
sS'n03584829_8238'
p357
I22
sS'n02106662_26346'
p358
I0
sS'n02281787_4054'
p359
I2
sS'n03376595_1511'
p360
I19
sS'n03297495_7249'
p361
I18
sS'n04069434_4984'
p362
I33
sS'n03272562_9422'
p363
I17
sS'n03888257_25024'
p364
I30
sS'n03445777_2486'
p365
I20
sS'n03773504_12829'
p366
I25
sS'n02504458_1644'
p367
I5
sS'n03877472_15988'
p368
I29
sS'n02389026_1428'
p369
I3
sS'n04044716_555'
p370
I32
sS'n02124075_14692'
p371
I1
sS'n03100240_6278'
p372
I13
sS'n03100240_5527'
p373
I13
sS'n03888257_10263'
p374
I30
sS'n03180011_4854'
p375
I14
sS'n02992529_3140'
p376
I11
sS'n02951358_3898'
p377
I10
sS'n02106662_1152'
p378
I0
sS'n02106662_16111'
p379
I0
sS'n03590841_12008'
p380
I23
sS'n07873807_11590'
p381
I37
sS'n02124075_13369'
p382
I1
sS'n03792972_6888'
p383
I28
sS'n03452741_5127'
p384
I21
sS'n02492035_16608'
p385
I4
sS'n03792972_6880'
p386
I28
sS'n03792782_41513'
p387
I27
sS'n02951358_11607'
p388
I10
sS'n03590841_7585'
p389
I23
sS'n02124075_10692'
p390
I1
sS'n03452741_24828'
p391
I21
sS'n02106662_13380'
p392
I0
sS'n03197337_1585'
p393
I15
sS'n03376595_513'
p394
I19
sS'n02492035_4749'
p395
I4
sS'n03297495_6041'
p396
I18
sS'n03877472_22207'
p397
I29
sS'n03180011_1169'
p398
I14
sS'n04120489_6792'
p399
I35
sS'n03888257_67221'
p400
I30
sS'n02389026_15987'
p401
I3
sS'n03792972_5624'
p402
I28
sS'n03709823_17276'
p403
I24
sS'n13054560_144'
p404
I39
sS'n03982430_8415'
p405
I31
sS'n03792972_7847'
p406
I28
sS'n02607072_3467'
p407
I7
sS'n07753592_7211'
p408
I36
sS'n03888257_35890'
p409
I30
sS'n02906734_25'
p410
I9
sS'n03792782_73754'
p411
I27
sS'n02504458_4962'
p412
I5
sS'n02504458_6880'
p413
I5
sS'n02951358_12023'
p414
I10
sS'n07873807_6256'
p415
I37
sS'n13054560_5228'
p416
I39
sS'n02510455_5262'
p417
I6
sS'n03272562_3996'
p418
I17
sS'n03982430_26384'
p419
I31
sS'n02690373_3775'
p420
I8
sS'n03452741_596'
p421
I21
sS'n02906734_5178'
p422
I9
sS'n11939491_28369'
p423
I38
sS'n03376595_4261'
p424
I19
sS'n03775071_19072'
p425
I26
sS'n03272010_11702'
p426
I16
sS'n03773504_17834'
p427
I25
sS'n03100240_8483'
p428
I13
sS'n03376595_14658'
p429
I19
sS'n03982430_820'
p430
I31
sS'n02906734_15924'
p431
I9
sS'n02124075_15030'
p432
I1
sS'n03445777_5546'
p433
I20
sS'n02492035_2806'
p434
I4
sS'n04069434_9755'
p435
I33
sS'n03197337_2901'
p436
I15
sS'n02504458_296'
p437
I5
sS'n07753592_5699'
p438
I36
sS'n02906734_4829'
p439
I9
sS'n02281787_2420'
p440
I2
sS'n02281787_2424'
p441
I2
sS'n04069434_25119'
p442
I33
sS'n13054560_1117'
p443
I39
sS'n03197337_2276'
p444
I15
sS'n02607072_440'
p445
I7
sS'n13054560_10'
p446
I39
sS'n02607072_5362'
p447
I7
sS'n03197337_3616'
p448
I15
sS'n02607072_4766'
p449
I7
sS'n03792782_1475'
p450
I27
sS'n11939491_19827'
p451
I38
sS'n11939491_19821'
p452
I38
sS'n03773504_7432'
p453
I25
sS'n11939491_27567'
p454
I38
sS'n02951358_5396'
p455
I10
sS'n03775071_18300'
p456
I26
sS'n02690373_8547'
p457
I8
sS'n02607072_505'
p458
I7
sS'n03180011_8437'
p459
I14
sS'n03100240_5291'
p460
I13
sS'n03792972_4392'
p461
I28
sS'n03452741_20907'
p462
I21
sS'n03063599_4126'
p463
I12
sS'n03197337_5747'
p464
I15
sS'n07873807_8175'
p465
I37
sS'n03297495_2959'
p466
I18
sS'n03272010_13834'
p467
I16
sS'n04086273_29346'
p468
I34
sS'n03445777_3704'
p469
I20
sS'n04086273_23903'
p470
I34
sS'n03272010_6660'
p471
I16
sS'n02906734_12979'
p472
I9
sS'n02951358_35847'
p473
I10
sS'n03888257_22484'
p474
I30
sS'n03452741_2540'
p475
I21
sS'n03888257_72045'
p476
I30
sS'n03792972_5693'
p477
I28
sS'n02607072_2324'
p478
I7
sS'n03773504_6126'
p479
I25
sS'n03197337_1807'
p480
I15
sS'n03775071_7922'
p481
I26
sS'n03792782_3253'
p482
I27
sS'n02906734_22673'
p483
I9
sS'n03584829_23459'
p484
I22
sS'n03445777_2548'
p485
I20
sS'n03792782_15989'
p486
I27
sS'n13054560_12604'
p487
I39
sS'n03584829_14825'
p488
I22
sS'n02607072_321'
p489
I7
sS'n04086273_14978'
p490
I34
sS'n03452741_15660'
p491
I21
sS'n07873807_8872'
p492
I37
sS'n03445777_2493'
p493
I20
sS'n02992529_48895'
p494
I11
sS'n03982430_17180'
p495
I31
sS'n03197337_4454'
p496
I15
sS'n03584829_43476'
p497
I22
sS'n03775071_8091'
p498
I26
sS'n03773504_8896'
p499
I25
sS'n07753592_11656'
p500
I36
sS'n02906734_23937'
p501
I9
sS'n02124075_9738'
p502
I1
sS'n03888257_34737'
p503
I30
sS'n02281787_3465'
p504
I2
sS'n03063599_2'
p505
I12
sS'n03590841_3013'
p506
I23
sS'n07873807_29341'
p507
I37
sS'n11939491_7046'
p508
I38
sS'n03452741_3767'
p509
I21
sS'n03445777_6397'
p510
I20
sS'n07873807_9629'
p511
I37
sS'n03180011_2282'
p512
I14
sS'n03584829_42056'
p513
I22
sS'n03197337_4983'
p514
I15
sS'n11939491_51019'
p515
I38
sS'n03775071_4141'
p516
I26
sS'n03792972_8672'
p517
I28
sS'n03775071_2681'
p518
I26
sS'n04044716_9463'
p519
I32
sS'n03709823_17750'
p520
I24
sS'n02690373_20090'
p521
I8
sS'n04120489_4360'
p522
I35
sS'n02504458_8126'
p523
I5
sS'n02690373_4113'
p524
I8
sS'n02607072_7951'
p525
I7
sS'n03709823_18246'
p526
I24
sS'n02510455_96034'
p527
I6
sS'n03773504_24354'
p528
I25
sS'n04086273_15333'
p529
I34
sS'n03197337_6214'
p530
I15
sS'n04044716_14689'
p531
I32
sS'n02510455_2272'
p532
I6
sS'n02906734_27945'
p533
I9
sS'n03877472_4952'
p534
I29
sS'n04120489_4024'
p535
I35
sS'n04044716_7075'
p536
I32
sS'n02690373_2569'
p537
I8
sS'n04044716_7072'
p538
I32
sS'n03297495_1447'
p539
I18
sS'n04086273_26698'
p540
I34
sS'n02951358_3171'
p541
I10
sS'n03792972_3356'
p542
I28
sS'n03297495_5343'
p543
I18
sS'n03197337_2113'
p544
I15
sS'n03584829_1618'
p545
I22
sS'n02951358_13507'
p546
I10
sS'n03297495_1847'
p547
I18
sS'n04044716_14261'
p548
I32
sS'n03877472_18905'
p549
I29
sS'n04069434_21934'
p550
I33
sS'n03709823_54'
p551
I24
sS'n03180011_9815'
p552
I14
sS'n03888257_20572'
p553
I30
sS'n02510455_12977'
p554
I6
sS'n03272562_608'
p555
I17
sS'n04044716_3605'
p556
I32
sS'n07753592_22813'
p557
I36
sS'n02992529_20831'
p558
I11
sS'n03297495_1204'
p559
I18
sS'n02690373_6999'
p560
I8
sS'n02389026_1942'
p561
I3
sS'n04069434_26426'
p562
I33
sS'n03297495_5693'
p563
I18
sS'n02492035_15815'
p564
I4
sS'n03590841_4580'
p565
I23
sS'n03792782_442'
p566
I27
sS'n07753592_15491'
p567
I36
sS'n03773504_27122'
p568
I25
sS'n04086273_17042'
p569
I34
sS'n03775071_5437'
p570
I26
sS'n02124075_10525'
p571
I1
sS'n02504458_5888'
p572
I5
sS'n02690373_3492'
p573
I8
sS'n03709823_12670'
p574
I24
sS'n03063599_256'
p575
I12
sS'n02281787_2216'
p576
I2
sS'n03792782_1424'
p577
I27
sS'n03197337_526'
p578
I15
sS'n02492035_4268'
p579
I4
sS'n04069434_9030'
p580
I33
sS'n03877472_17347'
p581
I29
sS'n02504458_2353'
p582
I5
sS'n03888257_15735'
p583
I30
sS'n02492035_2148'
p584
I4
sS'n02389026_27266'
p585
I3
sS'n03297495_5767'
p586
I18
sS'n03180011_794'
p587
I14
sS'n02106662_2034'
p588
I0
sS'n03063599_4204'
p589
I12
sS'n04044716_1159'
p590
I32
sS'n02281787_2506'
p591
I2
sS'n07873807_13359'
p592
I37
sS'n02951358_2350'
p593
I10
sS'n03888257_16741'
p594
I30
sS'n03584829_23908'
p595
I22
sS'n03584829_37186'
p596
I22
sS'n07753592_21169'
p597
I36
sS'n03063599_3144'
p598
I12
sS'n02906734_23421'
p599
I9
sS'n03773504_370'
p600
I25
sS'n03100240_855'
p601
I13
sS'n03590841_13511'
p602
I23
sS'n03180011_8428'
p603
I14
sS'n02124075_12218'
p604
I1
sS'n03888257_23233'
p605
I30
sS'n04086273_8280'
p606
I34
sS'n02124075_15260'
p607
I1
sS'n03792782_7544'
p608
I27
sS'n03180011_640'
p609
I14
sS'n04120489_2346'
p610
I35
sS'n03709823_11119'
p611
I24
sS'n02492035_931'
p612
I4
sS'n04120489_12988'
p613
I35
sS'n03590841_3715'
p614
I23
sS'n03775071_7792'
p615
I26
sS'n04086273_5768'
p616
I34
sS'n03272010_16031'
p617
I16
sS'n03272010_6473'
p618
I16
sS'n04069434_2260'
p619
I33
sS'n02492035_6391'
p620
I4
sS'n02690373_398'
p621
I8
sS'n02492035_597'
p622
I4
sS'n04044716_12999'
p623
I32
sS'n03445777_14816'
p624
I20
sS'n04086273_24071'
p625
I34
sS'n02106662_3549'
p626
I0
sS'n03982430_20021'
p627
I31
sS'n03180011_8284'
p628
I14
sS'n07873807_2421'
p629
I37
sS'n03584829_33459'
p630
I22
sS'n03590841_589'
p631
I23
sS'n07753592_11248'
p632
I36
sS'n03792972_8208'
p633
I28
sS'n03888257_9449'
p634
I30
sS'n03100240_17523'
p635
I13
sS'n02504458_3463'
p636
I5
sS'n03180011_5279'
p637
I14
sS'n13054560_3245'
p638
I39
sS'n11939491_4441'
p639
I38
sS'n04069434_5636'
p640
I33
sS'n03180011_10645'
p641
I14
sS'n03792972_7636'
p642
I28
sS'n07873807_8036'
p643
I37
sS'n02951358_4508'
p644
I10
sS'n03792782_51004'
p645
I27
sS'n02510455_4074'
p646
I6
sS'n03982430_20620'
p647
I31
sS'n03773504_9557'
p648
I25
sS'n07753592_10286'
p649
I36
sS'n07873807_12468'
p650
I37
sS'n03775071_9939'
p651
I26
sS'n04044716_16185'
p652
I32
sS'n03584829_5468'
p653
I22
sS'n03877472_19624'
p654
I29
sS'n03445777_1386'
p655
I20
sS'n02607072_304'
p656
I7
sS'n04069434_10640'
p657
I33
sS'n03180011_10086'
p658
I14
sS'n02106662_12188'
p659
I0
sS'n03590841_6874'
p660
I23
sS'n03445777_7729'
p661
I20
sS'n03376595_16706'
p662
I19
sS'n02690373_4128'
p663
I8
sS'n02389026_2013'
p664
I3
sS'n04044716_8877'
p665
I32
sS'n04086273_15347'
p666
I34
sS'n03775071_14789'
p667
I26
sS'n04044716_10371'
p668
I32
sS'n02690373_13327'
p669
I8
sS'n03063599_1096'
p670
I12
sS'n03272562_23949'
p671
I17
sS'n02510455_880'
p672
I6
sS'n03452741_9008'
p673
I21
sS'n03775071_4799'
p674
I26
sS'n02106662_21809'
p675
I0
sS'n03888257_11755'
p676
I30
sS'n03982430_27656'
p677
I31
sS'n02951358_6617'
p678
I10
sS'n03792782_15531'
p679
I27
sS'n03063599_4756'
p680
I12
sS'n04086273_26689'
p681
I34
sS'n04044716_860'
p682
I32
sS'n04086273_3360'
p683
I34
sS'n11939491_32011'
p684
I38
sS'n03180011_6930'
p685
I14
sS'n03709823_24403'
p686
I24
sS'n03452741_1134'
p687
I21
sS'n03297495_6805'
p688
I18
sS'n03063599_1320'
p689
I12
sS'n03792782_27435'
p690
I27
sS'n03877472_18970'
p691
I29
sS'n03445777_1169'
p692
I20
sS'n07753592_2065'
p693
I36
sS'n02504458_5098'
p694
I5
sS'n03709823_2377'
p695
I24
sS'n04120489_5424'
p696
I35
sS'n03773504_6492'
p697
I25
sS'n03376595_247'
p698
I19
sS'n02690373_3537'
p699
I8
sS'n04069434_16723'
p700
I33
sS'n13054560_9125'
p701
I39
sS'n13054560_12721'
p702
I39
sS'n03376595_10579'
p703
I19
sS'n03773504_190'
p704
I25
sS'n03452741_10443'
p705
I21
sS'n03297495_9742'
p706
I18
sS'n04120489_15272'
p707
I35
sS'n13054560_9128'
p708
I39
sS'n02504458_5897'
p709
I5
sS'n03272010_491'
p710
I16
sS'n03376595_3398'
p711
I19
sS'n03197337_884'
p712
I15
sS'n03773504_5904'
p713
I25
sS'n11939491_59345'
p714
I38
sS'n03272010_17735'
p715
I16
sS'n02504458_2251'
p716
I5
sS'n04120489_1426'
p717
I35
sS'n03584829_37429'
p718
I22
sS'n03888257_54295'
p719
I30
sS'n03272010_11611'
p720
I16
sS'n03180011_7261'
p721
I14
sS'n03100240_8599'
p722
I13
sS'n03982430_5509'
p723
I31
sS'n07873807_4258'
p724
I37
sS'n03792972_5151'
p725
I28
sS'n02607072_8208'
p726
I7
sS'n02504458_3816'
p727
I5
sS'n03272562_9387'
p728
I17
sS'n02106662_14005'
p729
I0
sS'n03775071_794'
p730
I26
sS'n02992529_40085'
p731
I11
sS'n02951358_33850'
p732
I10
sS'n03982430_21363'
p733
I31
sS'n02281787_3843'
p734
I2
sS'n02690373_13610'
p735
I8
sS'n04044716_1297'
p736
I32
sS'n03063599_3976'
p737
I12
sS'n03063599_3797'
p738
I12
sS'n02992529_26983'
p739
I11
sS'n03297495_4225'
p740
I18
sS'n02690373_7499'
p741
I8
sS'n03982430_38183'
p742
I31
sS'n03982430_38007'
p743
I31
sS'n03792782_122'
p744
I27
sS'n02492035_24294'
p745
I4
sS'n03376595_8252'
p746
I19
sS'n03063599_3808'
p747
I12
sS'n03297495_20441'
p748
I18
sS'n02951358_20407'
p749
I10
sS'n02124075_7825'
p750
I1
sS'n04069434_7363'
p751
I33
sS'n02281787_2401'
p752
I2
sS'n03584829_18101'
p753
I22
sS'n03445777_2634'
p754
I20
sS'n03180011_11059'
p755
I14
sS'n03792972_21953'
p756
I28
sS'n02281787_1179'
p757
I2
sS'n07753592_11653'
p758
I36
sS'n03452741_2968'
p759
I21
sS'n03272010_6686'
p760
I16
sS'n03584829_34990'
p761
I22
sS'n04044716_12188'
p762
I32
sS'n03100240_9408'
p763
I13
sS'n02106662_1560'
p764
I0
sS'n07753592_2113'
p765
I36
sS'n03100240_5169'
p766
I13
sS'n03590841_3496'
p767
I23
sS'n03773504_12019'
p768
I25
sS'n07873807_16625'
p769
I37
sS'n02607072_2654'
p770
I7
sS'n11939491_18783'
p771
I38
sS'n02106662_9504'
p772
I0
sS'n02492035_7701'
p773
I4
sS'n03445777_8026'
p774
I20
sS'n02906734_20509'
p775
I9
sS'n02607072_3302'
p776
I7
sS'n02124075_7359'
p777
I1
sS'n03982430_25514'
p778
I31
sS'n03180011_8709'
p779
I14
sS'n02607072_6223'
p780
I7
sS'n02106662_6706'
p781
I0
sS'n02389026_9764'
p782
I3
sS'n02690373_4358'
p783
I8
sS'n03877472_10144'
p784
I29
sS'n03197337_1351'
p785
I15
sS'n07753592_2604'
p786
I36
sS'n02992529_13348'
p787
I11
sS'n03100240_9083'
p788
I13
sS'n03982430_340'
p789
I31
sS'n03452741_1652'
p790
I21
sS'n02106662_2736'
p791
I0
sS'n02504458_10554'
p792
I5
sS'n02492035_16430'
p793
I4
sS'n04044716_8041'
p794
I32
sS'n03982430_22989'
p795
I31
sS'n02992529_42018'
p796
I11
sS'n03180011_8386'
p797
I14
sS'n03063599_2427'
p798
I12
sS'n03888257_25093'
p799
I30
sS'n03709823_9033'
p800
I24
sS'n03272010_4751'
p801
I16
sS'n02281787_4713'
p802
I2
sS'n04086273_2509'
p803
I34
sS'n03452741_12188'
p804
I21
sS'n02492035_6722'
p805
I4
sS'n03180011_9161'
p806
I14
sS'n02124075_8754'
p807
I1
sS'n03100240_5884'
p808
I13
sS'n02690373_8883'
p809
I8
sS'n13054560_13982'
p810
I39
sS'n07873807_6880'
p811
I37
sS'n03888257_10341'
p812
I30
sS'n02281787_2885'
p813
I2
sS'n02389026_2002'
p814
I3
sS'n03590841_6462'
p815
I23
sS'n02389026_16434'
p816
I3
sS'n03584829_17682'
p817
I22
sS'n07873807_6649'
p818
I37
sS'n03792972_2647'
p819
I28
sS'n03272010_10710'
p820
I16
sS'n03877472_4423'
p821
I29
sS'n03773504_1147'
p822
I25
sS'n03197337_4485'
p823
I15
sS'n03877472_1350'
p824
I29
sS'n03100240_20935'
p825
I13
sS'n02690373_5714'
p826
I8
sS'n03180011_19233'
p827
I14
sS'n03982430_22186'
p828
I31
sS'n13054560_7616'
p829
I39
sS'n02106662_25138'
p830
I0
sS'n03180011_7094'
p831
I14
sS'n03709823_19280'
p832
I24
sS'n07753592_10598'
p833
I36
sS'n02906734_1069'
p834
I9
sS'n03297495_2510'
p835
I18
sS'n03100240_15686'
p836
I13
sS'n03452741_11632'
p837
I21
sS'n02906734_17089'
p838
I9
sS'n03709823_1562'
p839
I24
sS'n04120489_11501'
p840
I35
sS'n02389026_1967'
p841
I3
sS'n03584829_11991'
p842
I22
sS'n02124075_358'
p843
I1
sS'n03888257_10568'
p844
I30
sS'n03272010_7309'
p845
I16
sS'n03590841_11242'
p846
I23
sS'n02510455_376'
p847
I6
sS'n03197337_6547'
p848
I15
sS'n03590841_4723'
p849
I23
sS'n03272562_10216'
p850
I17
sS'n03792972_2068'
p851
I28
sS'n02690373_5866'
p852
I8
sS'n04044716_17274'
p853
I32
sS'n03792972_2062'
p854
I28
sS'n13054560_1341'
p855
I39
sS'n03063599_4596'
p856
I12
sS'n04086273_2750'
p857
I34
sS'n02906734_1847'
p858
I9
sS'n03445777_10719'
p859
I20
sS'n13054560_13804'
p860
I39
sS'n03590841_272'
p861
I23
sS'n03197337_544'
p862
I15
sS'n03590841_5746'
p863
I23
sS'n03197337_6495'
p864
I15
sS'n03376595_3835'
p865
I19
sS'n02906734_23718'
p866
I9
sS'n02510455_95099'
p867
I6
sS'n03877472_49257'
p868
I29
sS'n03376595_2729'
p869
I19
sS'n02281787_1616'
p870
I2
sS'n02992529_3905'
p871
I11
sS'n02690373_19107'
p872
I8
sS'n02607072_650'
p873
I7
sS'n02906734_28772'
p874
I9
sS'n07873807_7685'
p875
I37
sS'n03792782_11817'
p876
I27
sS'n04086273_15351'
p877
I34
sS'n04086273_7362'
p878
I34
sS'n04069434_22664'
p879
I33
sS'n03877472_10554'
p880
I29
sS'n03180011_1731'
p881
I14
sS'n03775071_29137'
p882
I26
sS'n07873807_3354'
p883
I37
sS'n03445777_298'
p884
I20
sS'n03584829_19502'
p885
I22
sS'n03063599_4172'
p886
I12
sS'n03297495_3837'
p887
I18
sS'n02607072_8302'
p888
I7
sS'n02607072_8871'
p889
I7
sS'n03197337_5937'
p890
I15
sS'n03982430_10737'
p891
I31
sS'n02492035_952'
p892
I4
sS'n03792782_7678'
p893
I27
sS'n03709823_11912'
p894
I24
sS'n03792782_51296'
p895
I27
sS'n02510455_6311'
p896
I6
sS'n04069434_2244'
p897
I33
sS'n02992529_53064'
p898
I11
sS'n11939491_12276'
p899
I38
sS'n03792972_20760'
p900
I28
sS'n04086273_234'
p901
I34
sS'n02951358_26150'
p902
I10
sS'n02607072_6141'
p903
I7
sS'n03272562_8931'
p904
I17
sS'n03775071_7753'
p905
I26
sS'n03982430_25524'
p906
I31
sS'n04086273_24099'
p907
I34
sS'n07753592_11731'
p908
I36
sS'n03197337_48'
p909
I15
sS'n03180011_4255'
p910
I14
sS'n02992529_36205'
p911
I11
sS'n02281787_4016'
p912
I2
sS'n03452741_15985'
p913
I21
sS'n03376595_8090'
p914
I19
sS'n02992529_32075'
p915
I11
sS'n03792972_21968'
p916
I28
sS'n03100240_14896'
p917
I13
sS'n02106662_38611'
p918
I0
sS'n03197337_1925'
p919
I15
sS'n02951358_4562'
p920
I10
sS'n03888257_5799'
p921
I30
sS'n02607072_3202'
p922
I7
sS'n07873807_4829'
p923
I37
sS'n02504458_12018'
p924
I5
sS'n07873807_8839'
p925
I37
sS'n03445777_520'
p926
I20
sS'n13054560_2116'
p927
I39
sS'n03590841_6382'
p928
I23
sS'n03773504_13201'
p929
I25
sS'n03982430_38296'
p930
I31
sS'n04069434_3119'
p931
I33
sS'n03445777_15294'
p932
I20
sS'n03792972_3633'
p933
I28
sS'n03775071_8354'
p934
I26
sS'n03272562_9108'
p935
I17
sS'n04044716_10174'
p936
I32
sS'n04069434_8333'
p937
I33
sS'n07873807_8902'
p938
I37
sS'n03297495_6004'
p939
I18
sS'n07753592_11911'
p940
I36
sS'n03297495_7537'
p941
I18
sS'n03773504_17692'
p942
I25
sS'n03792782_3513'
p943
I27
sS'n11939491_12042'
p944
I38
sS'n04044716_6993'
p945
I32
sS'n03877472_33829'
p946
I29
sS'n03272562_4342'
p947
I17
sS'n02492035_5475'
p948
I4
sS'n02492035_1970'
p949
I4
sS'n03452741_11539'
p950
I21
sS'n02281787_3049'
p951
I2
sS'n04044716_9308'
p952
I32
sS'n03452741_5499'
p953
I21
sS'n02389026_1607'
p954
I3
sS'n03584829_441'
p955
I22
sS'n03792782_15557'
p956
I27
sS'n03445777_9216'
p957
I20
sS'n02124075_10164'
p958
I1
sS'n03452741_5497'
p959
I21
sS'n03773504_17345'
p960
I25
sS'n02492035_17265'
p961
I4
sS'n02510455_461'
p962
I6
sS'n03584829_17079'
p963
I22
sS'n03297495_1632'
p964
I18
sS'n03888257_8806'
p965
I30
sS'n03376595_3021'
p966
I19
sS'n03297495_2852'
p967
I18
sS'n11939491_51732'
p968
I38
sS'n03100240_10410'
p969
I13
sS'n02607072_10385'
p970
I7
sS'n03792972_10790'
p971
I28
sS'n03590841_5378'
p972
I23
sS'n02690373_736'
p973
I8
sS'n07753592_10252'
p974
I36
sS'n03376595_2393'
p975
I19
sS'n03180011_9576'
p976
I14
sS'n03272010_7485'
p977
I16
sS'n04044716_8320'
p978
I32
sS'n02492035_4451'
p979
I4
sS'n03452741_6867'
p980
I21
sS'n03590841_1942'
p981
I23
sS'n03272562_4588'
p982
I17
sS'n02510455_7681'
p983
I6
sS'n03590841_5460'
p984
I23
sS'n02690373_3289'
p985
I8
sS'n02906734_31239'
p986
I9
sS'n02504458_5055'
p987
I5
sS'n11939491_6422'
p988
I38
sS'n02906734_16831'
p989
I9
sS'n03590841_4737'
p990
I23
sS'n03877472_59785'
p991
I29
sS'n02690373_5870'
p992
I8
sS'n02951358_2037'
p993
I10
sS'n03888257_20436'
p994
I30
sS'n02504458_9423'
p995
I5
sS'n03063599_732'
p996
I12
sS'n03590841_5739'
p997
I23
sS'n03445777_10723'
p998
I20
sS'n03590841_5730'
p999
I23
sS'n02992529_47945'
p1000
I11
sS'n02607072_4636'
p1001
I7
sS'n03272010_6208'
p1002
I16
sS'n04086273_31449'
p1003
I34
sS'n02504458_30'
p1004
I5
sS'n13054560_2594'
p1005
I39
sS'n02492035_15733'
p1006
I4
sS'n03297495_146'
p1007
I18
sS'n03197337_10152'
p1008
I15
sS'n03376595_13734'
p1009
I19
sS'n03272562_7903'
p1010
I17
sS'n02124075_6261'
p1011
I1
sS'n04120489_1083'
p1012
I35
sS'n11939491_5512'
p1013
I38
sS'n11939491_2004'
p1014
I38
sS'n03792782_22626'
p1015
I27
sS'n02389026_11339'
p1016
I3
sS'n03792782_1105'
p1017
I27
sS'n02510455_2236'
p1018
I6
sS'n02106662_34979'
p1019
I0
sS'n03590841_317'
p1020
I23
sS'n04086273_2383'
p1021
I34
sS'n02906734_13063'
p1022
I9
sS'n02281787_4242'
p1023
I2
sS'n03775071_13384'
p1024
I26
sS'n03197337_9396'
p1025
I15
sS'n07753592_1628'
p1026
I36
sS'n02992529_13746'
p1027
I11
sS'n02106662_19720'
p1028
I0
sS'n04120489_3979'
p1029
I35
sS'n03792972_4668'
p1030
I28
sS'n04069434_9682'
p1031
I33
sS'n03452741_12409'
p1032
I21
sS'n02510455_15178'
p1033
I6
sS'n03982430_4768'
p1034
I31
sS'n11939491_5055'
p1035
I38
sS'n02389026_3997'
p1036
I3
sS'n02504458_2264'
p1037
I5
sS'n03376595_9081'
p1038
I19
sS'n02389026_4674'
p1039
I3
sS'n03180011_4664'
p1040
I14
sS'n03445777_4914'
p1041
I20
sS'n11939491_18520'
p1042
I38
sS'n03877472_34007'
p1043
I29
sS'n03792782_51723'
p1044
I27
sS'n02906734_13451'
p1045
I9
sS'n04120489_2287'
p1046
I35
sS'n04069434_20903'
p1047
I33
sS'n02124075_12316'
p1048
I1
sS'n03376595_6931'
p1049
I19
sS'n03297495_23823'
p1050
I18
sS'n03452741_2747'
p1051
I21
sS'n03452741_2748'
p1052
I21
sS'n03297495_6144'
p1053
I18
sS'n03709823_30215'
p1054
I24
sS'n03773504_7654'
p1055
I25
sS'n13054560_13277'
p1056
I39
sS'n03775071_7968'
p1057
I26
sS'n03272010_386'
p1058
I16
sS'n02106662_18900'
p1059
I0
sS'n04086273_9295'
p1060
I34
sS'n02389026_5612'
p1061
I3
sS'n03272010_4598'
p1062
I16
sS'n03272010_4594'
p1063
I16
sS'n03063599_3757'
p1064
I12
sS'n02504458_2900'
p1065
I5
sS'n03452741_2123'
p1066
I21
sS'n04044716_2201'
p1067
I32
sS'n07873807_2836'
p1068
I37
sS'n02492035_492'
p1069
I4
sS'n03584829_4295'
p1070
I22
sS'n04044716_8060'
p1071
I32
sS'n11939491_3128'
p1072
I38
sS'n07873807_1477'
p1073
I37
sS'n03877472_15398'
p1074
I29
sS'n03180011_1447'
p1075
I14
sS'n04120489_6612'
p1076
I35
sS'n04120489_11988'
p1077
I35
sS'n03100240_11417'
p1078
I13
sS'n04069434_2544'
p1079
I33
sS'n13054560_2126'
p1080
I39
sS'n02951358_3515'
p1081
I10
sS'n02906734_508'
p1082
I9
sS'n03272562_9527'
p1083
I17
sS'n02992529_24263'
p1084
I11
sS'n13054560_402'
p1085
I39
sS'n04069434_8520'
p1086
I33
sS'n03877472_566'
p1087
I29
sS'n03452741_13438'
p1088
I21
sS'n04120489_3626'
p1089
I35
sS'n04069434_12771'
p1090
I33
sS'n11939491_6750'
p1091
I38
sS'n02504458_4080'
p1092
I5
sS'n02106662_2666'
p1093
I0
sS'n03445777_13918'
p1094
I20
sS'n03180011_20934'
p1095
I14
sS'n07873807_4961'
p1096
I37
sS'n03063599_5566'
p1097
I12
sS'n02492035_5642'
p1098
I4
sS'n04086273_17269'
p1099
I34
sS'n03376595_6555'
p1100
I19
sS'n03792972_3139'
p1101
I28
sS'n02504458_6059'
p1102
I5
sS'n02124075_12955'
p1103
I1
sS'n03272562_4339'
p1104
I17
sS'n04120489_780'
p1105
I35
sS'n04120489_11173'
p1106
I35
sS'n02951358_30776'
p1107
I10
sS'n02510455_33944'
p1108
I6
sS'n03100240_6035'
p1109
I13
sS'n02607072_3433'
p1110
I7
sS'n03376595_108'
p1111
I19
sS'n02690373_4641'
p1112
I8
sS'n03982430_38664'
p1113
I31
sS'n03775071_9762'
p1114
I26
sS'n03773504_10749'
p1115
I25
sS'n03792782_33413'
p1116
I27
sS'n07873807_11143'
p1117
I37
sS'n04086273_6166'
p1118
I34
sS'n02389026_26281'
p1119
I3
sS'n03982430_6084'
p1120
I31
sS'n03180011_5834'
p1121
I14
sS'n03100240_3310'
p1122
I13
sS'n02690373_13283'
p1123
I8
sS'n03376595_9332'
p1124
I19
sS'n03297495_5410'
p1125
I18
sS'n03272010_7101'
p1126
I16
sS'n03197337_2028'
p1127
I15
sS'n07753592_8831'
p1128
I36
sS'n02124075_6306'
p1129
I1
sS'n02389026_19580'
p1130
I3
sS'n03063599_5287'
p1131
I12
sS'n03452741_10677'
p1132
I21
sS'n03982430_19962'
p1133
I31
sS'n03888257_74823'
p1134
I30
sS'n03272010_7585'
p1135
I16
sS'n03584829_1928'
p1136
I22
sS'n02992529_9195'
p1137
I11
sS'n03792782_933'
p1138
I27
sS'n03775071_14467'
p1139
I26
sS'n02281787_3095'
p1140
I2
sS'n03272010_6219'
p1141
I16
sS'n02607072_4194'
p1142
I7
sS'n02690373_3473'
p1143
I8
sS'n03445777_4588'
p1144
I20
sS'n03709823_491'
p1145
I24
sS'n04044716_13714'
p1146
I32
sS'n02690373_139'
p1147
I8
sS'n02492035_7001'
p1148
I4
sS'n03877472_17412'
p1149
I29
sS'n03792972_5452'
p1150
I28
sS'n03888257_5316'
p1151
I30
sS'n03877472_17417'
p1152
I29
sS'n03100240_10208'
p1153
I13
sS'n02607072_674'
p1154
I7
sS'n03272010_3791'
p1155
I16
sS'n03773504_24500'
p1156
I25
sS'n04086273_7611'
p1157
I34
sS'n03584829_22963'
p1158
I22
sS'n03709823_4089'
p1159
I24
sS'n04069434_6336'
p1160
I33
sS'n03376595_10755'
p1161
I19
sS'n03877472_16070'
p1162
I29
sS'n02690373_6739'
p1163
I8
sS'n07753592_3707'
p1164
I36
sS'n02510455_15145'
p1165
I6
sS'n13054560_5700'
p1166
I39
sS'n02124075_1144'
p1167
I1
sS'n04086273_2640'
p1168
I34
sS'n03584829_35528'
p1169
I22
sS'n04120489_13557'
p1170
I35
sS'n03272562_2727'
p1171
I17
sS'n04069434_1429'
p1172
I33
sS'n03063599_4391'
p1173
I12
sS'n03376595_11970'
p1174
I19
sS'n03709823_14414'
p1175
I24
sS'n03297495_3670'
p1176
I18
sS'n03709823_18703'
p1177
I24
sS'n03197337_10311'
p1178
I15
sS'n03888257_12842'
p1179
I30
sS'n03792972_4075'
p1180
I28
sS'n04120489_3816'
p1181
I35
sS'n03792782_757'
p1182
I27
sS'n03100240_961'
p1183
I13
sS'n04069434_3590'
p1184
I33
sS'n03775071_15074'
p1185
I26
sS'n11939491_10024'
p1186
I38
sS'n03100240_416'
p1187
I13
sS'n03888257_28669'
p1188
I30
sS'n02106662_42456'
p1189
I0
sS'n02124075_8164'
p1190
I1
sS'n11939491_26197'
p1191
I38
sS'n03877472_19578'
p1192
I29
sS'n03445777_15187'
p1193
I20
sS'n03376595_7985'
p1194
I19
sS'n04069434_7064'
p1195
I33
sS'n07873807_3896'
p1196
I37
sS'n03888257_5404'
p1197
I30
sS'n02124075_12430'
p1198
I1
sS'n03888257_6912'
p1199
I30
sS'n02906734_21829'
p1200
I9
sS'n04044716_16890'
p1201
I32
sS'n03773504_2986'
p1202
I25
sS'n02106662_62262'
p1203
I0
sS'n03272562_1086'
p1204
I17
sS'n04086273_9176'
p1205
I34
sS'n03376595_1446'
p1206
I19
sS'n02992529_35446'
p1207
I11
sS'n03452741_3088'
p1208
I21
sS'n03982430_31385'
p1209
I31
sS'n11939491_51866'
p1210
I38
sS'n04044716_13329'
p1211
I32
sS'n03297495_861'
p1212
I18
sS'n04086273_24997'
p1213
I34
sS'n02951358_34070'
p1214
I10
sS'n03877472_22593'
p1215
I29
sS'n02124075_13678'
p1216
I1
sS'n03775071_8171'
p1217
I26
sS'n03982430_30922'
p1218
I31
sS'n03982430_7125'
p1219
I31
sS'n03445777_8839'
p1220
I20
sS'n03376595_6674'
p1221
I19
sS'n02504458_772'
p1222
I5
sS'n13054560_6633'
p1223
I39
sS'n04086273_38573'
p1224
I34
sS'n03297495_7555'
p1225
I18
sS'n03590841_10934'
p1226
I23
sS'n02492035_202'
p1227
I4
sS'n03792972_16299'
p1228
I28
sS'n04086273_1283'
p1229
I34
sS'n03272010_1531'
p1230
I16
sS'n03888257_8193'
p1231
I30
sS'n02492035_1990'
p1232
I4
sS'n03877472_13361'
p1233
I29
sS'n03376595_1130'
p1234
I19
sS'n02992529_24142'
p1235
I11
sS'n03773504_14300'
p1236
I25
sS'n04044716_7003'
p1237
I32
sS'n03773504_24291'
p1238
I25
sS'n02504458_5322'
p1239
I5
sS'n11939491_7263'
p1240
I38
sS'n02992529_9565'
p1241
I11
sS'n02690373_4671'
p1242
I8
sS'n02690373_20331'
p1243
I8
sS'n02992529_46810'
p1244
I11
sS'n02106662_26120'
p1245
I0
sS'n13054560_3394'
p1246
I39
sS'n07753592_18752'
p1247
I36
sS'n03888257_19139'
p1248
I30
sS'n02510455_13100'
p1249
I6
sS'n03775071_10573'
p1250
I26
sS'n02492035_1200'
p1251
I4
sS'n02504458_4981'
p1252
I5
sS'n02106662_24186'
p1253
I0
sS'n03100240_15894'
p1254
I13
sS'n02124075_11746'
p1255
I1
sS'n03100240_13929'
p1256
I13
sS'n02992529_55194'
p1257
I11
sS'n02281787_3391'
p1258
I2
sS'n07753592_7560'
p1259
I36
sS'n11939491_48574'
p1260
I38
sS'n03376595_14453'
p1261
I19
sS'n04044716_14839'
p1262
I32
sS'n03272562_4639'
p1263
I17
sS'n03709823_25550'
p1264
I24
sS'n02492035_5457'
p1265
I4
sS'n02690373_2042'
p1266
I8
sS'n03445777_10698'
p1267
I20
sS'n03272010_7113'
p1268
I16
sS'n02492035_3113'
p1269
I4
sS'n07753592_5899'
p1270
I36
sS'n02906734_5466'
p1271
I9
sS'n03773504_5893'
p1272
I25
sS'n03709823_18874'
p1273
I24
sS'n03376595_2119'
p1274
I19
sS'n02389026_3269'
p1275
I3
sS'n03063599_552'
p1276
I12
sS'n02510455_7153'
p1277
I6
sS'n02504458_6155'
p1278
I5
sS'n03272010_6886'
p1279
I16
sS'n03775071_2735'
p1280
I26
sS'n03376595_13596'
p1281
I19
sS'n02607072_4295'
p1282
I7
sS'n04120489_2607'
p1283
I35
sS'n02281787_2571'
p1284
I2
sS'n03376595_2756'
p1285
I19
sS'n02106662_2248'
p1286
I0
sS'n03297495_9376'
p1287
I18
sS'n04120489_4702'
p1288
I35
sS'n02906734_14010'
p1289
I9
sS'n02504458_341'
p1290
I5
sS'n04120489_1397'
p1291
I35
sS'n03100240_13498'
p1292
I13
sS'n07873807_17154'
p1293
I37
sS'n02607072_4278'
p1294
I7
sS'n03982430_28132'
p1295
I31
sS'n03584829_50475'
p1296
I22
sS'n03792972_17744'
p1297
I28
sS'n02951358_10498'
p1298
I10
sS'n02124075_1089'
p1299
I1
sS'n03272562_7309'
p1300
I17
sS'n03792972_1036'
p1301
I28
sS'n02124075_15230'
p1302
I1
sS'n04120489_4419'
p1303
I35
sS'n07873807_231'
p1304
I37
sS'n03792782_1018'
p1305
I27
sS'n02951358_31055'
p1306
I10
sS'n02124075_1155'
p1307
I1
sS'n02389026_3086'
p1308
I3
sS'n03590841_8166'
p1309
I23
sS'n03063599_4386'
p1310
I12
sS'n03100240_8794'
p1311
I13
sS'n04120489_5706'
p1312
I35
sS'n02690373_19407'
p1313
I8
sS'n03272562_8639'
p1314
I17
sS'n02124075_1882'
p1315
I1
sS'n02607072_5873'
p1316
I7
sS'n03063599_2735'
p1317
I12
sS'n03063599_3606'
p1318
I12
sS'n04069434_6988'
p1319
I33
sS'n03100240_1696'
p1320
I13
sS'n02906734_8177'
p1321
I9
sS'n04044716_553'
p1322
I32
sS'n07753592_2395'
p1323
I36
sS'n03709823_16994'
p1324
I24
sS'n03792782_7796'
p1325
I27
sS'n07753592_20463'
p1326
I36
sS'n03982430_1280'
p1327
I31
sS'n02281787_2759'
p1328
I2
sS'n03272562_8831'
p1329
I17
sS'n03773504_4107'
p1330
I25
sS'n07753592_6889'
p1331
I36
sS'n04069434_4001'
p1332
I33
sS'n03584829_13149'
p1333
I22
sS'n03272010_4370'
p1334
I16
sS'n04120489_4154'
p1335
I35
sS'n04069434_14342'
p1336
I33
sS'n03452741_12093'
p1337
I21
sS'n02510455_3210'
p1338
I6
sS'n02492035_1742'
p1339
I4
sS'n03775071_14876'
p1340
I26
sS'n02690373_10382'
p1341
I8
sS'n02389026_2841'
p1342
I3
sS'n02106662_41564'
p1343
I0
sS'n03775071_6122'
p1344
I26
sS'n02607072_3895'
p1345
I7
sS'n04120489_2833'
p1346
I35
sS'n02389026_3660'
p1347
I3
sS'n03709823_17153'
p1348
I24
sS'n03272010_4713'
p1349
I16
sS'n02124075_16814'
p1350
I1
sS'n02389026_292'
p1351
I3
sS'n13054560_6139'
p1352
I39
sS'n03709823_25684'
p1353
I24
sS'n02906734_3648'
p1354
I9
sS'n13054560_7472'
p1355
I39
sS'n03773504_6291'
p1356
I25
sS'n02607072_5749'
p1357
I7
sS'n03100240_20114'
p1358
I13
sS'n02504458_1903'
p1359
I5
sS'n11939491_11273'
p1360
I38
sS'n02492035_17580'
p1361
I4
sS'n04086273_10244'
p1362
I34
sS'n03775071_1170'
p1363
I26
sS'n03376595_5336'
p1364
I19
sS'n03877472_53538'
p1365
I29
sS'n13054560_7719'
p1366
I39
sS'n03197337_1885'
p1367
I15
sS'n02690373_9335'
p1368
I8
sS'n03888257_17848'
p1369
I30
sS'n03709823_16731'
p1370
I24
sS'n03775071_11762'
p1371
I26
sS'n13054560_514'
p1372
I39
sS'n07753592_13820'
p1373
I36
sS'n03792972_8504'
p1374
I28
sS'n03982430_3386'
p1375
I31
sS'n03773504_18353'
p1376
I25
sS'n02124075_6197'
p1377
I1
sS'n02510455_207'
p1378
I6
sS'n03063599_5607'
p1379
I12
sS'n02510455_53353'
p1380
I6
sS'n03775071_4070'
p1381
I26
sS'n11939491_19370'
p1382
I38
sS'n02690373_6804'
p1383
I8
sS'n13054560_509'
p1384
I39
sS'n03590841_8067'
p1385
I23
sS'n04044716_895'
p1386
I32
sS'n11939491_19516'
p1387
I38
sS'n03445777_6794'
p1388
I20
sS'n02510455_13285'
p1389
I6
sS'n02106662_83638'
p1390
I0
sS'n02492035_1238'
p1391
I4
sS'n02951358_33286'
p1392
I10
sS'n03775071_14066'
p1393
I26
sS'n02992529_30316'
p1394
I11
sS'n03888257_39021'
p1395
I30
sS'n03877472_28707'
p1396
I29
sS'n03452741_7563'
p1397
I21
sS'n03197337_7234'
p1398
I15
sS'n03877472_8388'
p1399
I29
sS'n02510455_6901'
p1400
I6
sS'n04120489_4138'
p1401
I35
sS'n02389026_6224'
p1402
I3
sS'n04120489_18'
p1403
I35
sS'n02510455_50'
p1404
I6
sS'n03197337_4904'
p1405
I15
sS'n02607072_3700'
p1406
I7
sS'n02510455_4184'
p1407
I6
sS'n02504458_9235'
p1408
I5
sS'n07873807_7806'
p1409
I37
sS'n02492035_4135'
p1410
I4
sS'n03376595_15191'
p1411
I19
sS'n02690373_2109'
p1412
I8
sS'n07873807_15536'
p1413
I37
sS'n07753592_12159'
p1414
I36
sS'n13054560_2630'
p1415
I39
sS'n03272562_7667'
p1416
I17
sS'n07753592_11542'
p1417
I36
sS'n03297495_6989'
p1418
I18
sS'n02389026_8754'
p1419
I3
sS'n03297495_22143'
p1420
I18
sS'n02510455_5100'
p1421
I6
sS'n03063599_748'
p1422
I12
sS'n04069434_2931'
p1423
I33
sS'n02951358_34807'
p1424
I10
sS'n11939491_55377'
p1425
I38
sS'n07873807_9933'
p1426
I37
sS'n02106662_2337'
p1427
I0
sS'n03197337_616'
p1428
I15
sS'n03272562_21848'
p1429
I17
sS'n04044716_11667'
p1430
I32
sS'n03272562_3236'
p1431
I17
sS'n02492035_4550'
p1432
I4
sS'n02906734_16624'
p1433
I9
sS'n04069434_25763'
p1434
I33
sS'n03197337_830'
p1435
I15
sS'n03180011_937'
p1436
I14
sS'n03584829_22166'
p1437
I22
sS'n02951358_31190'
p1438
I10
sS'n02992529_59711'
p1439
I11
sS'n02504458_193'
p1440
I5
sS'n02124075_2231'
p1441
I1
sS'n11939491_51288'
p1442
I38
sS'n02992529_34922'
p1443
I11
sS'n02906734_39817'
p1444
I9
sS'n02690373_8538'
p1445
I8
sS'n03584829_13555'
p1446
I22
sS'n03792782_5672'
p1447
I27
sS'n07873807_13119'
p1448
I37
sS'n04120489_1850'
p1449
I35
sS'n03180011_3347'
p1450
I14
sS'n03773504_3694'
p1451
I25
sS'n04086273_10557'
p1452
I34
sS'n03272010_649'
p1453
I16
sS'n03445777_11409'
p1454
I20
sS'n02281787_2105'
p1455
I2
sS'n03272010_3353'
p1456
I16
sS'n07753592_5463'
p1457
I36
sS'n02607072_5803'
p1458
I7
sS'n03445777_8477'
p1459
I20
sS'n03773504_3650'
p1460
I25
sS'n03775071_11429'
p1461
I26
sS'n03792782_8840'
p1462
I27
sS'n03888257_8439'
p1463
I30
sS'n03877472_20362'
p1464
I29
sS'n03792972_4965'
p1465
I28
sS'n03792972_474'
p1466
I28
sS'n03272010_2539'
p1467
I16
sS'n02389026_3893'
p1468
I3
sS'n07753592_1341'
p1469
I36
sS'n02992529_36464'
p1470
I11
sS'n03888257_5543'
p1471
I30
sS'n04086273_7815'
p1472
I34
sS'n03445777_4098'
p1473
I20
sS'n03773504_16122'
p1474
I25
sS'n02607072_4703'
p1475
I7
sS'n03272010_6705'
p1476
I16
sS'n02992529_3673'
p1477
I11
sS'n03590841_9772'
p1478
I23
sS'n03982430_16249'
p1479
I31
sS'n02124075_12299'
p1480
I1
sS'n03775071_12083'
p1481
I26
sS'n03982430_1387'
p1482
I31
sS'n03888257_6749'
p1483
I30
sS'n07873807_8875'
p1484
I37
sS'n03877472_4073'
p1485
I29
sS'n02106662_22463'
p1486
I0
sS'n03709823_6919'
p1487
I24
sS'n03445777_2427'
p1488
I20
sS'n02607072_2553'
p1489
I7
sS'n02281787_2960'
p1490
I2
sS'n03775071_14792'
p1491
I26
sS'n03773504_21104'
p1492
I25
sS'n02389026_5151'
p1493
I3
sS'n02510455_4616'
p1494
I6
sS'n07753592_847'
p1495
I36
sS'n02389026_24702'
p1496
I3
sS'n07753592_7813'
p1497
I36
sS'n03452741_7769'
p1498
I21
sS'n03877472_24064'
p1499
I29
sS'n03100240_23306'
p1500
I13
sS'n03775071_11195'
p1501
I26
sS'n04069434_8666'
p1502
I33
sS'n11939491_8949'
p1503
I38
sS'n03584829_28308'
p1504
I22
sS'n03877472_4672'
p1505
I29
sS'n11939491_8940'
p1506
I38
sS'n03775071_4289'
p1507
I26
sS'n07873807_11579'
p1508
I37
sS'n02510455_2901'
p1509
I6
sS'n03773504_2899'
p1510
I25
sS'n02492035_16869'
p1511
I4
sS'n02992529_1413'
p1512
I11
sS'n03063599_2078'
p1513
I12
sS'n03584829_8502'
p1514
I22
sS'n03063599_2076'
p1515
I12
sS'n03877472_25717'
p1516
I29
sS'n03888257_24804'
p1517
I30
sS'n02951358_3499'
p1518
I10
sS'n11939491_23580'
p1519
I38
sS'n03773504_1194'
p1520
I25
sS'n03584829_42351'
p1521
I22
sS'n03982430_22203'
p1522
I31
sS'n02690373_4982'
p1523
I8
sS'n02992529_1732'
p1524
I11
sS'n02690373_2598'
p1525
I8
sS'n02492035_3912'
p1526
I4
sS'n02124075_14638'
p1527
I1
sS'n03792972_6504'
p1528
I28
sS'n07753592_14206'
p1529
I36
sS'n02389026_21754'
p1530
I3
sS'n02106662_26147'
p1531
I0
sS'n02951358_34314'
p1532
I10
sS'n03584829_3352'
p1533
I22
sS'n03709823_12759'
p1534
I24
sS'n02510455_177'
p1535
I6
sS'n03877472_2704'
p1536
I29
sS'n07873807_8379'
p1537
I37
sS'n03180011_6204'
p1538
I14
sS'n02106662_83994'
p1539
I0
sS'n03888257_24025'
p1540
I30
sS'n03180011_6194'
p1541
I14
sS'n07753592_1054'
p1542
I36
sS'n04044716_8778'
p1543
I32
sS'n03197337_8002'
p1544
I15
sS'n02992529_30946'
p1545
I11
sS'n03297495_6730'
p1546
I18
sS'n03452741_5051'
p1547
I21
sS'n03877472_28953'
p1548
I29
sS'n11939491_1823'
p1549
I38
sS'n02492035_4302'
p1550
I4
sS'n03792782_210'
p1551
I27
sS'n02906734_9317'
p1552
I9
sS'n03584829_26740'
p1553
I22
sS'n02504458_5872'
p1554
I5
sS'n02106662_10432'
p1555
I0
sS'n04069434_10318'
p1556
I33
sS'n03297495_2948'
p1557
I18
sS'n02281787_1927'
p1558
I2
sS'n03197337_2980'
p1559
I15
sS'n02951358_30108'
p1560
I10
sS'n03297495_8558'
p1561
I18
sS'n03197337_4803'
p1562
I15
sS'n02690373_9676'
p1563
I8
sS'n04044716_7208'
p1564
I32
sS'n02106662_2328'
p1565
I0
sS'n02504458_5474'
p1566
I5
sS'n03792782_4249'
p1567
I27
sS'n03877472_28483'
p1568
I29
sS'n02124075_544'
p1569
I1
sS'n02992529_5140'
p1570
I11
sS'n02510455_8270'
p1571
I6
sS'n02281787_5003'
p1572
I2
sS'n02389026_812'
p1573
I3
sS'n02607072_1607'
p1574
I7
sS'n02492035_14935'
p1575
I4
sS'n04120489_10206'
p1576
I35
sS'n03709823_19218'
p1577
I24
sS'n03590841_5596'
p1578
I23
sS'n13054560_1441'
p1579
I39
sS'n02281787_3195'
p1580
I2
sS'n03100240_8402'
p1581
I13
sS'n03297495_6972'
p1582
I18
sS'n03272562_9030'
p1583
I17
sS'n03709823_595'
p1584
I24
sS'n02510455_2122'
p1585
I6
sS'n03272010_6392'
p1586
I16
sS'n03297495_3864'
p1587
I18
sS'n07753592_1198'
p1588
I36
sS'n02607072_4672'
p1589
I7
sS'n02906734_14106'
p1590
I9
sS'n02906734_1341'
p1591
I9
sS'n03063599_550'
p1592
I12
sS'n03775071_3153'
p1593
I26
sS'n02906734_17960'
p1594
I9
sS'n03445777_3275'
p1595
I20
sS'n03180011_12507'
p1596
I14
sS'n02281787_4351'
p1597
I2
sS'n02992529_25836'
p1598
I11
sS'n03877472_27896'
p1599
I29
sS'n07753592_12082'
p1600
I36
sS'n02106662_53651'
p1601
I0
sS'n04120489_4989'
p1602
I35
sS'n03180011_16171'
p1603
I14
sS'n07753592_3841'
p1604
I36
sS'n13054560_13613'
p1605
I39
sS'n03888257_7960'
p1606
I30
sS'n13054560_1063'
p1607
I39
sS'n02510455_3235'
p1608
I6
sS'n03775071_950'
p1609
I26
sS'n03272562_8788'
p1610
I17
sS'n07873807_15352'
p1611
I37
sS'n03100240_4537'
p1612
I13
sS'n02389026_5498'
p1613
I3
sS'n02510455_7089'
p1614
I6
sS'n03982430_6758'
p1615
I31
sS'n03272562_6925'
p1616
I17
sS'n03197337_1338'
p1617
I15
sS'n02906734_22784'
p1618
I9
sS'n02106662_62679'
p1619
I0
sS'n03888257_5551'
p1620
I30
sS'n03773504_3067'
p1621
I25
sS'n02510455_10292'
p1622
I6
sS'n07753592_10233'
p1623
I36
sS'n03792972_1415'
p1624
I28
sS'n03775071_44'
p1625
I26
sS'n03063599_4402'
p1626
I12
sS'n02992529_39085'
p1627
I11
sS'n04069434_23709'
p1628
I33
sS'n04069434_22389'
p1629
I33
sS'n02951358_12117'
p1630
I10
sS'n03063599_3407'
p1631
I12
sS'n03272010_5150'
p1632
I16
sS'n03197337_16730'
p1633
I15
sS'n03773504_6748'
p1634
I25
sS'n04120489_4892'
p1635
I35
sS'n03376595_5133'
p1636
I19
sS'n03792782_11597'
p1637
I27
sS'n03197337_1045'
p1638
I15
sS'n03982430_454'
p1639
I31
sS'n03452741_7930'
p1640
I21
sS'n02106662_16149'
p1641
I0
sS'n03792782_15616'
p1642
I27
sS'n03445777_7797'
p1643
I20
sS'n04044716_8750'
p1644
I32
sS'n07753592_10129'
p1645
I36
sS'n03888257_19211'
p1646
I30
sS'n02504458_11860'
p1647
I5
sS'n03775071_9544'
p1648
I26
sS'n02106662_22676'
p1649
I0
sS'n03590841_6750'
p1650
I23
sS'n03792972_9168'
p1651
I28
sS'n03775071_11708'
p1652
I26
sS'n03709823_24814'
p1653
I24
sS'n03792782_14520'
p1654
I27
sS'n11939491_13581'
p1655
I38
sS'n02992529_35743'
p1656
I11
sS'n07873807_6011'
p1657
I37
sS'n03297495_6435'
p1658
I18
sS'n03775071_10386'
p1659
I26
sS'n02281787_3208'
p1660
I2
sS'n03590841_7080'
p1661
I23
sS'n03272010_11537'
p1662
I16
sS'n02492035_41'
p1663
I4
sS'n03775071_15065'
p1664
I26
sS'n02951358_12432'
p1665
I10
sS'n02124075_4027'
p1666
I1
sS'n02690373_5930'
p1667
I8
sS'n03272562_12814'
p1668
I17
sS'n02951358_31517'
p1669
I10
sS'n03888257_11699'
p1670
I30
sS'n02992529_1655'
p1671
I11
sS'n04044716_10185'
p1672
I32
sS'n03445777_603'
p1673
I20
sS'n02492035_5314'
p1674
I4
sS'n03063599_1069'
p1675
I12
sS'n03452741_1039'
p1676
I21
sS'n03197337_3591'
p1677
I15
sS'n04086273_18282'
p1678
I34
sS'n02106662_55943'
p1679
I0
sS'n03452741_5313'
p1680
I21
sS'n03877472_3847'
p1681
I29
sS'n03792972_3530'
p1682
I28
sS'n03180011_6300'
p1683
I14
sS'n03792782_978'
p1684
I27
sS'n03452741_19730'
p1685
I21
sS'n03792972_7810'
p1686
I28
sS'n03584829_14652'
p1687
I22
sS'n13054560_1526'
p1688
I39
sS'n03445777_16360'
p1689
I20
sS'n03063599_3714'
p1690
I12
sS'n03709823_451'
p1691
I24
sS'n02607072_1617'
p1692
I7
sS'n03590841_4692'
p1693
I23
sS'n02951358_9376'
p1694
I10
sS'n03180011_7542'
p1695
I14
sS'n04086273_26142'
p1696
I34
sS'n04120489_1561'
p1697
I35
sS'n03877472_2084'
p1698
I29
sS'n13054560_5293'
p1699
I39
sS'n03063599_4443'
p1700
I12
sS'n04086273_22354'
p1701
I34
sS'n03376595_3096'
p1702
I19
sS'n07873807_6774'
p1703
I37
sS'n07873807_18104'
p1704
I37
sS'n11939491_53211'
p1705
I38
sS'n02124075_15409'
p1706
I1
sS'n07753592_10848'
p1707
I36
sS'n03590841_5619'
p1708
I23
sS'n03775071_31820'
p1709
I26
sS'n03584829_11570'
p1710
I22
sS'n03590841_5612'
p1711
I23
sS'n02510455_4381'
p1712
I6
sS'n03272562_10988'
p1713
I17
sS'n03063599_436'
p1714
I12
sS'n03100240_5269'
p1715
I13
sS'n07873807_6910'
p1716
I37
sS'n03272562_9027'
p1717
I17
sS'n03792972_5525'
p1718
I28
sS'n03775071_2160'
p1719
I26
sS'n02951358_2999'
p1720
I10
sS'n03063599_3890'
p1721
I12
sS'n03063599_3899'
p1722
I12
sS'n02906734_15463'
p1723
I9
sS'n04086273_2044'
p1724
I34
sS'n03584829_35565'
p1725
I22
sS'n03272010_2880'
p1726
I16
sS'n02281787_4182'
p1727
I2
sS'n07753592_1562'
p1728
I36
sS'n03792972_1570'
p1729
I28
sS'n02510455_7030'
p1730
I6
sS'n03272010_4953'
p1731
I16
sS'n03792782_1225'
p1732
I27
sS'n03100240_16740'
p1733
I13
sS'n02281787_4347'
p1734
I2
sS'n03272562_9153'
p1735
I17
sS'n02492035_12239'
p1736
I4
sS'n02504458_3390'
p1737
I5
sS'n03445777_7947'
p1738
I20
sS'n04069434_17439'
p1739
I33
sS'n03792972_5327'
p1740
I28
sS'n03584829_23985'
p1741
I22
sS'n02124075_11383'
p1742
I1
sS'n03063599_4267'
p1743
I12
sS'n03180011_778'
p1744
I14
sS'n03792782_7438'
p1745
I27
sS'n03888257_29712'
p1746
I30
sS'n04069434_12120'
p1747
I33
sS'n04086273_4876'
p1748
I34
sS'n02281787_3742'
p1749
I2
sS'n03100240_234'
p1750
I13
sS'n02510455_4563'
p1751
I6
sS'n13054560_13132'
p1752
I39
sS'n02389026_22821'
p1753
I3
sS'n03100240_1391'
p1754
I13
sS'n02906734_6563'
p1755
I9
sS'n02607072_8125'
p1756
I7
sS'n03452741_12607'
p1757
I21
sS'n02492035_12651'
p1758
I4
sS'n03982430_38116'
p1759
I31
sS'n03584829_25078'
p1760
I22
sS'n13054560_4822'
p1761
I39
sS'n02690373_3920'
p1762
I8
sS'n04120489_5531'
p1763
I35
sS'n02389026_5793'
p1764
I3
sS'n04044716_17472'
p1765
I32
sS'n03584829_57652'
p1766
I22
sS'n03272010_4724'
p1767
I16
sS'n02281787_413'
p1768
I2
sS'n02124075_57'
p1769
I1
sS'n03888257_8089'
p1770
I30
sS'n02510455_3666'
p1771
I6
sS'n03709823_8862'
p1772
I24
sS'n02504458_3776'
p1773
I5
sS'n03888257_9371'
p1774
I30
sS'n02951358_33007'
p1775
I10
sS'n03792782_2550'
p1776
I27
sS'n02607072_2158'
p1777
I7
sS'n07873807_11236'
p1778
I37
sS'n03709823_9192'
p1779
I24
sS'n03100240_788'
p1780
I13
sS'n03773504_919'
p1781
I25
sS'n03982430_24236'
p1782
I31
sS'n03584829_4421'
p1783
I22
sS'n03877472_24739'
p1784
I29
sS'n02389026_2094'
p1785
I3
sS'n02106662_7885'
p1786
I0
sS'n04086273_24014'
p1787
I34
sS'n03100240_3889'
p1788
I13
sS'n03063599_2052'
p1789
I12
sS'n02510455_4705'
p1790
I6
sS'n03709823_17693'
p1791
I24
sS'n03982430_22918'
p1792
I31
sS'n03452741_21391'
p1793
I21
sS'n04120489_14875'
p1794
I35
sS'n03452741_16744'
p1795
I21
sS'n07873807_12502'
p1796
I37
sS'n03272010_1242'
p1797
I16
sS'n03197337_7114'
p1798
I15
sS'n03445777_1252'
p1799
I20
sS'n04044716_8814'
p1800
I32
sS'n04044716_15589'
p1801
I32
sS'n03584829_32695'
p1802
I22
sS'n04120489_5595'
p1803
I35
sS'n02690373_7615'
p1804
I8
sS'n02281787_4573'
p1805
I2
sS'n07873807_5062'
p1806
I37
sS'n03982430_7509'
p1807
I31
sS'n02992529_52043'
p1808
I11
sS'n02106662_16347'
p1809
I0
sS'n02389026_3434'
p1810
I3
sS'n02281787_3239'
p1811
I2
sS'n02992529_46'
p1812
I11
sS'n02492035_5782'
p1813
I4
sS'n03272562_4071'
p1814
I17
sS'n03773504_21879'
p1815
I25
sS'n02389026_772'
p1816
I3
sS'n02607072_1538'
p1817
I7
sS'n03452741_5417'
p1818
I21
sS'n03982430_13651'
p1819
I31
sS'n02607072_1530'
p1820
I7
sS'n13054560_9747'
p1821
I39
sS'n02951358_9763'
p1822
I10
sS'n02106662_16778'
p1823
I0
sS'n02504458_522'
p1824
I5
sS'n03773504_8042'
p1825
I25
sS'n03445777_6451'
p1826
I20
sS'n04044716_8149'
p1827
I32
sS'n02504458_4388'
p1828
I5
sS'n03063599_4665'
p1829
I12
sS'n03982430_38762'
p1830
I31
sS'n03590841_11147'
p1831
I23
sS'n04120489_191'
p1832
I35
sS'n03297495_7624'
p1833
I18
sS'n03272562_4677'
p1834
I17
sS'n03100240_15292'
p1835
I13
sS'n03445777_10655'
p1836
I20
sS'n02492035_3407'
p1837
I4
sS'n03590841_11761'
p1838
I23
sS'n02504458_5816'
p1839
I5
sS'n03792782_12815'
p1840
I27
sS'n03792782_8799'
p1841
I27
sS'n02951358_31478'
p1842
I10
sS'n11939491_16299'
p1843
I38
sS'n03982430_22000'
p1844
I31
sS'n02906734_20263'
p1845
I9
sS'n03445777_5222'
p1846
I20
sS'n02124075_6148'
p1847
I1
sS'n02492035_3883'
p1848
I4
sS'n03445777_5224'
p1849
I20
sS'n03709823_5945'
p1850
I24
sS'n02951358_12288'
p1851
I10
sS'n13054560_3008'
p1852
I39
sS'n02124075_14165'
p1853
I1
sS'n03792972_4937'
p1854
I28
sS'n03888257_39168'
p1855
I30
sS'n03376595_4826'
p1856
I19
sS'n03452741_17620'
p1857
I21
sS'n03297495_6860'
p1858
I18
sS'n03452741_13260'
p1859
I21
sS'n03982430_26451'
p1860
I31
sS'n03982430_26452'
p1861
I31
sS'n03982430_26106'
p1862
I31
sS'n03272010_6978'
p1863
I16
sS'n04069434_9580'
p1864
I33
sS'n03773504_29664'
p1865
I25
sS'n03272010_6575'
p1866
I16
sS'n03445777_9865'
p1867
I20
sS'n03100240_7198'
p1868
I13
sS'n02504458_2561'
p1869
I5
sS'n02992529_6234'
p1870
I11
sS'n03590841_5553'
p1871
I23
sS'n03297495_5666'
p1872
I18
sS'n03888257_5703'
p1873
I30
sS'n13054560_12727'
p1874
I39
sS'n03792972_710'
p1875
I28
sS'n03709823_15337'
p1876
I24
sS'n03877472_23771'
p1877
I29
sS'n02389026_3083'
p1878
I3
sS'n02124075_20891'
p1879
I1
sS'n04069434_25732'
p1880
I33
sS'n02281787_2248'
p1881
I2
sS'n03100240_2619'
p1882
I13
sS'n02992529_12523'
p1883
I11
sS'n07753592_24879'
p1884
I36
sS'n07873807_290'
p1885
I37
sS'n02992529_13031'
p1886
I11
sS'n07753592_10281'
p1887
I36
sS'n02281787_4373'
p1888
I2
sS'n03272010_17752'
p1889
I16
sS'n02281787_4378'
p1890
I2
sS'n03100240_18954'
p1891
I13
sS'n02906734_20584'
p1892
I9
sS'n03297495_3934'
p1893
I18
sS'n03197337_2783'
p1894
I15
sS'n04120489_10588'
p1895
I35
sS'n03272562_2339'
p1896
I17
sS'n02992529_14442'
p1897
I11
sS'n02510455_5805'
p1898
I6
sS'n04044716_17511'
p1899
I32
sS'n03100240_1385'
p1900
I13
sS'n02504458_6428'
p1901
I5
sS'n03272562_11066'
p1902
I17
sS'n02106662_1278'
p1903
I0
sS'n03590841_2521'
p1904
I23
sS'n02124075_12460'
p1905
I1
sS'n03982430_11084'
p1906
I31
sS'n02389026_10241'
p1907
I3
sS'n02504458_7084'
p1908
I5
sS'n03709823_14136'
p1909
I24
sS'n02389026_9275'
p1910
I3
sS'n02992529_33824'
p1911
I11
sS'n03709823_17118'
p1912
I24
sS'n03452741_2982'
p1913
I21
sS'n03180011_4310'
p1914
I14
sS'n02906734_7397'
p1915
I9
sS'n02492035_23459'
p1916
I4
sS'n03272010_6407'
p1917
I16
sS'n03982430_696'
p1918
I31
sS'n03180011_8787'
p1919
I14
sS'n02607072_2164'
p1920
I7
sS'n03773504_6765'
p1921
I25
sS'n04069434_23835'
p1922
I33
sS'n03180011_3446'
p1923
I14
sS'n03877472_15311'
p1924
I29
sS'n02951358_3594'
p1925
I10
sS'n03452741_8763'
p1926
I21
sS'n02607072_6241'
p1927
I7
sS'n03792782_15924'
p1928
I27
sS'n02906734_21984'
p1929
I9
sS'n11939491_23775'
p1930
I38
sS'n03197337_4120'
p1931
I15
sS'n02951358_3461'
p1932
I10
sS'n02992529_36230'
p1933
I11
sS'n02389026_724'
p1934
I3
sS'n02124075_12647'
p1935
I1
sS'n02906734_3707'
p1936
I9
sS'n03272562_4190'
p1937
I17
sS'n03272562_4191'
p1938
I17
sS'n03709823_24745'
p1939
I24
sS'n03792972_6306'
p1940
I28
sS'n02504458_10336'
p1941
I5
sS'n02951358_29817'
p1942
I10
sS'n04069434_14206'
p1943
I33
sS'n03709823_16792'
p1944
I24
sS'n03773504_14125'
p1945
I25
sS'n03452741_1987'
p1946
I21
sS'n03445777_6265'
p1947
I20
sS'n03180011_10140'
p1948
I14
sS'n02281787_4566'
p1949
I2
sS'n03272562_8238'
p1950
I17
sS'n02124075_14886'
p1951
I1
sS'n02951358_13835'
p1952
I10
sS'n03272562_1784'
p1953
I17
sS'n03775071_11032'
p1954
I26
sS'n02124075_9206'
p1955
I1
sS'n04086273_17510'
p1956
I34
sS'n03877472_14155'
p1957
I29
sS'n03584829_45572'
p1958
I22
sS'n03792972_6273'
p1959
I28
sS'n04120489_5075'
p1960
I35
sS'n03197337_4275'
p1961
I15
sS'n04086273_29628'
p1962
I34
sS'n03100240_2138'
p1963
I13
sS'n02389026_5978'
p1964
I3
sS'n03775071_14287'
p1965
I26
sS'n02510455_5449'
p1966
I6
sS'n04044716_14882'
p1967
I32
sS'n02492035_5484'
p1968
I4
sS'n13054560_4449'
p1969
I39
sS'n04044716_14350'
p1970
I32
sS'n02690373_1670'
p1971
I8
sS'n03297495_7657'
p1972
I18
sS'n02951358_3041'
p1973
I10
sS'n13054560_116'
p1974
I39
sS'n04120489_140'
p1975
I35
sS'n02690373_1691'
p1976
I8
sS'n03376595_2419'
p1977
I19
sS'n04069434_12878'
p1978
I33
sS'n03773504_1281'
p1979
I25
sS'n03376595_635'
p1980
I19
sS'n03297495_2592'
p1981
I18
sS'n03272010_7501'
p1982
I16
sS'n03197337_2937'
p1983
I15
sS'n02389026_1711'
p1984
I3
sS'n03792972_16558'
p1985
I28
sS'n03272562_4381'
p1986
I17
sS'n03376595_852'
p1987
I19
sS'n03773504_19468'
p1988
I25
sS'n03297495_6878'
p1989
I18
sS'n03709823_17878'
p1990
I24
sS'n07753592_10343'
p1991
I36
sS'n02389026_6405'
p1992
I3
sS'n03272562_6590'
p1993
I17
sS'n02690373_748'
p1994
I8
sS'n02504458_2716'
p1995
I5
sS'n03100240_18492'
p1996
I13
sS'n02389026_6409'
p1997
I3
sS'n03272562_6756'
p1998
I17
sS'n02906734_1118'
p1999
I9
sS'n03877472_1245'
p2000
I29
s.